; Function Attrs: mustprogress nofree norecurse nosync nounwind willreturn memory(write, argmem: readwrite, inaccessiblemem: none) uwtable
define hidden void @_ZN11OpenImageIO6v3_1_014SoftimageInput4initEv(ptr noundef nonnull align 8 captures(none) dereferenceable(376) initializes((184, 192), (328, 336)) %0) local_unnamed_addr #6 align 2 personality ptr @__gxx_personality_v0 {
  %2 = getelementptr inbounds nuw i8, ptr %0, i64 184
  store ptr null, ptr %2, align 8, !tbaa !11
  %3 = getelementptr inbounds nuw i8, ptr %0, i64 320
  %4 = getelementptr inbounds nuw i8, ptr %0, i64 328
  store i64 0, ptr %4, align 8, !tbaa !59
  %5 = load ptr, ptr %3, align 8, !tbaa !60
  store i8 0, ptr %5, align 1, !tbaa !61
  %6 = getelementptr inbounds nuw i8, ptr %0, i64 296
  %7 = load ptr, ptr %6, align 8, !tbaa !62
  %8 = getelementptr inbounds nuw i8, ptr %0, i64 304
  %9 = load ptr, ptr %8, align 8, !tbaa !63
  %.not.i.i = icmp eq ptr %9, %7
  br i1 %.not.i.i, label %_ZNSt6vectorIN11OpenImageIO6v3_1_013softimage_pvt13ChannelPacketESaIS3_EE5clearEv.exit, label %10

10:                                               ; preds = %1
  store ptr %7, ptr %8, align 8, !tbaa !63
  br label %_ZNSt6vectorIN11OpenImageIO6v3_1_013softimage_pvt13ChannelPacketESaIS3_EE5clearEv.exit

_ZNSt6vectorIN11OpenImageIO6v3_1_013softimage_pvt13ChannelPacketESaIS3_EE5clearEv.exit: ; preds = %1, %10
  %11 = getelementptr inbounds nuw i8, ptr %0, i64 352
  %12 = load ptr, ptr %11, align 8, !tbaa !64
  %13 = getelementptr inbounds nuw i8, ptr %0, i64 360
  %14 = load ptr, ptr %13, align 8, !tbaa !65
  %.not.i.i1 = icmp eq ptr %14, %12
  br i1 %.not.i.i1, label %_ZNSt6vectorI9_G_fpos_tSaIS0_EE5clearEv.exit, label %15

15:                                               ; preds = %_ZNSt6vectorIN11OpenImageIO6v3_1_013softimage_pvt13ChannelPacketESaIS3_EE5clearEv.exit
  store ptr %12, ptr %13, align 8, !tbaa !65
  br label %_ZNSt6vectorI9_G_fpos_tSaIS0_EE5clearEv.exit

_ZNSt6vectorI9_G_fpos_tSaIS0_EE5clearEv.exit:     ; preds = %_ZNSt6vectorIN11OpenImageIO6v3_1_013softimage_pvt13ChannelPacketESaIS3_EE5clearEv.exit, %15
  ret void
}